target datalayout = "e-m:e-p270:32:32-p271:32:32-p272:64:64-i64:64-i128:128-f80:128-n8:16:32:64-S128"
target triple = "x86_64-pc-linux-gnu"

%struct.strbuf = type { i64, i64, ptr }
%struct.note_data = type { i32, i32, ptr, %struct.strbuf, ptr, i64, i64 }
%struct.note_msg = type { i32, %struct.strbuf }

@strbuf_slopbuf = external global [0 x i8], align 1
@separator = internal global ptr @.str.57, align 8
@.str.57 = private unnamed_addr constant [2 x i8] c"\0A\00", align 1
@__const.concat_messages.msg = private unnamed_addr constant %struct.strbuf { i64 0, i64 0, ptr @strbuf_slopbuf }, align 8
@.str.59 = private unnamed_addr constant [5 x i8] c"%s%s\00", align 1
@.str.60 = private unnamed_addr constant [11 x i8] c"./strbuf.h\00", align 1
@.str.61 = private unnamed_addr constant [30 x i8] c"strbuf_setlen() beyond buffer\00", align 1

; Function Attrs: inlinehint nounwind uwtable
define internal void @strbuf_addstr(ptr noundef %0, ptr noundef %1) #3 {
  %3 = alloca ptr, align 8
  %4 = alloca ptr, align 8
  store ptr %0, ptr %3, align 8, !tbaa !59
  store ptr %1, ptr %4, align 8, !tbaa !11
  %5 = load ptr, ptr %3, align 8, !tbaa !59
  %6 = load ptr, ptr %4, align 8, !tbaa !11
  %7 = load ptr, ptr %4, align 8, !tbaa !11
  %8 = call i64 @strlen(ptr noundef %7) #13
  call void @strbuf_add(ptr noundef %5, ptr noundef %6, i64 noundef %8)
  ret void
}

; Function Attrs: inlinehint nounwind uwtable
define internal void @strbuf_setlen(ptr noundef %0, i64 noundef %1) #3 {
  %3 = alloca ptr, align 8
  %4 = alloca i64, align 8
  store ptr %0, ptr %3, align 8, !tbaa !59
  store i64 %1, ptr %4, align 8, !tbaa !42
  %5 = load i64, ptr %4, align 8, !tbaa !42
  %6 = load ptr, ptr %3, align 8, !tbaa !59
  %7 = getelementptr inbounds nuw %struct.strbuf, ptr %6, i32 0, i32 0
  %8 = load i64, ptr %7, align 8, !tbaa !84
  %9 = icmp ne i64 %8, 0
  br i1 %9, label %10, label %15

10:                                               ; preds = %2
  %11 = load ptr, ptr %3, align 8, !tbaa !59
  %12 = getelementptr inbounds nuw %struct.strbuf, ptr %11, i32 0, i32 0
  %13 = load i64, ptr %12, align 8, !tbaa !84
  %14 = sub i64 %13, 1
  br label %16

15:                                               ; preds = %2
  br label %16

16:                                               ; preds = %15, %10
  %17 = phi i64 [ %14, %10 ], [ 0, %15 ]
  %18 = icmp ugt i64 %5, %17
  br i1 %18, label %19, label %20

19:                                               ; preds = %16
  call void (ptr, i32, ptr, ...) @BUG_fl(ptr noundef @.str.60, i32 noundef 167, ptr noundef @.str.61) #12
  unreachable

20:                                               ; preds = %16
  %21 = load i64, ptr %4, align 8, !tbaa !42
  %22 = load ptr, ptr %3, align 8, !tbaa !59
  %23 = getelementptr inbounds nuw %struct.strbuf, ptr %22, i32 0, i32 1
  store i64 %21, ptr %23, align 8, !tbaa !43
  %24 = load ptr, ptr %3, align 8, !tbaa !59
  %25 = getelementptr inbounds nuw %struct.strbuf, ptr %24, i32 0, i32 2
  %26 = load ptr, ptr %25, align 8, !tbaa !30
  %27 = icmp ne ptr %26, @strbuf_slopbuf
  br i1 %27, label %28, label %34

28:                                               ; preds = %20
  %29 = load ptr, ptr %3, align 8, !tbaa !59
  %30 = getelementptr inbounds nuw %struct.strbuf, ptr %29, i32 0, i32 2
  %31 = load ptr, ptr %30, align 8, !tbaa !30
  %32 = load i64, ptr %4, align 8, !tbaa !42
  %33 = getelementptr inbounds nuw i8, ptr %31, i64 %32
  store i8 0, ptr %33, align 1, !tbaa !58
  br label %35

34:                                               ; preds = %20
  br label %35

35:                                               ; preds = %34, %28
  ret void
}

; Function Attrs: nounwind uwtable
define internal void @append_separator(ptr noundef %0) #0 {
  %2 = alloca ptr, align 8
  %3 = alloca i64, align 8
  %4 = alloca i32, align 4
  store ptr %0, ptr %2, align 8, !tbaa !59
  call void @llvm.lifetime.start.p0(i64 8, ptr %3) #11
  store i64 0, ptr %3, align 8, !tbaa !42
  %5 = load ptr, ptr @separator, align 8, !tbaa !11
  %6 = icmp ne ptr %5, null
  br i1 %6, label %8, label %7

7:                                                ; preds = %1
  store i32 1, ptr %4, align 4
  br label %28

8:                                                ; preds = %1
  %9 = load ptr, ptr @separator, align 8, !tbaa !11
  %10 = call i64 @strlen(ptr noundef %9) #13
  store i64 %10, ptr %3, align 8, !tbaa !42
  %11 = icmp ne i64 %10, 0
  br i1 %11, label %12, label %23

12:                                               ; preds = %8
  %13 = load ptr, ptr @separator, align 8, !tbaa !11
  %14 = load i64, ptr %3, align 8, !tbaa !42
  %15 = sub i64 %14, 1
  %16 = getelementptr inbounds nuw i8, ptr %13, i64 %15
  %17 = load i8, ptr %16, align 1, !tbaa !58
  %18 = sext i8 %17 to i32
  %19 = icmp eq i32 %18, 10
  br i1 %19, label %20, label %23

20:                                               ; preds = %12
  %21 = load ptr, ptr %2, align 8, !tbaa !59
  %22 = load ptr, ptr @separator, align 8, !tbaa !11
  call void @strbuf_addstr(ptr noundef %21, ptr noundef %22)
  br label %26

23:                                               ; preds = %12, %8
  %24 = load ptr, ptr %2, align 8, !tbaa !59
  %25 = load ptr, ptr @separator, align 8, !tbaa !11
  call void (ptr, ptr, ...) @strbuf_addf(ptr noundef %24, ptr noundef @.str.59, ptr noundef %25, ptr noundef @.str.57)
  br label %26

26:                                               ; preds = %23, %20
  br label %27

27:                                               ; preds = %26
  store i32 0, ptr %4, align 4
  br label %28

28:                                               ; preds = %27, %7
  call void @llvm.lifetime.end.p0(i64 8, ptr %3) #11
  %29 = load i32, ptr %4, align 4
  switch i32 %29, label %31 [
    i32 0, label %30
    i32 1, label %30
  ]

30:                                               ; preds = %28, %28
  ret void

31:                                               ; preds = %28
  unreachable
}

; Function Attrs: nounwind uwtable
define internal void @concat_messages(ptr noundef %0) #0 {
  %2 = alloca ptr, align 8
  %3 = alloca %struct.strbuf, align 8
  %4 = alloca i64, align 8
  store ptr %0, ptr %2, align 8, !tbaa !68
  call void @llvm.lifetime.start.p0(i64 24, ptr %3) #11
  call void @llvm.memcpy.p0.p0.i64(ptr align 8 %3, ptr align 8 @__const.concat_messages.msg, i64 24, i1 false)
  call void @llvm.lifetime.start.p0(i64 8, ptr %4) #11
  store i64 0, ptr %4, align 8, !tbaa !42
  br label %5

5:                                                ; preds = %64, %1
  %6 = load i64, ptr %4, align 8, !tbaa !42
  %7 = load ptr, ptr %2, align 8, !tbaa !68
  %8 = getelementptr inbounds nuw %struct.note_data, ptr %7, i32 0, i32 5
  %9 = load i64, ptr %8, align 8, !tbaa !36
  %10 = icmp ult i64 %6, %9
  br i1 %10, label %11, label %67

11:                                               ; preds = %5
  %12 = load ptr, ptr %2, align 8, !tbaa !68
  %13 = getelementptr inbounds nuw %struct.note_data, ptr %12, i32 0, i32 3
  %14 = getelementptr inbounds nuw %struct.strbuf, ptr %13, i32 0, i32 1
  %15 = load i64, ptr %14, align 8, !tbaa !41
  %16 = icmp ne i64 %15, 0
  br i1 %16, label %17, label %20

17:                                               ; preds = %11
  %18 = load ptr, ptr %2, align 8, !tbaa !68
  %19 = getelementptr inbounds nuw %struct.note_data, ptr %18, i32 0, i32 3
  call void @append_separator(ptr noundef %19)
  br label %20

20:                                               ; preds = %17, %11
  %21 = load ptr, ptr %2, align 8, !tbaa !68
  %22 = getelementptr inbounds nuw %struct.note_data, ptr %21, i32 0, i32 4
  %23 = load ptr, ptr %22, align 8, !tbaa !73
  %24 = load i64, ptr %4, align 8, !tbaa !42
  %25 = getelementptr inbounds nuw ptr, ptr %23, i64 %24
  %26 = load ptr, ptr %25, align 8, !tbaa !70
  %27 = getelementptr inbounds nuw %struct.note_msg, ptr %26, i32 0, i32 1
  %28 = getelementptr inbounds nuw %struct.strbuf, ptr %27, i32 0, i32 2
  %29 = load ptr, ptr %28, align 8, !tbaa !78
  %30 = load ptr, ptr %2, align 8, !tbaa !68
  %31 = getelementptr inbounds nuw %struct.note_data, ptr %30, i32 0, i32 4
  %32 = load ptr, ptr %31, align 8, !tbaa !73
  %33 = load i64, ptr %4, align 8, !tbaa !42
  %34 = getelementptr inbounds nuw ptr, ptr %32, i64 %33
  %35 = load ptr, ptr %34, align 8, !tbaa !70
  %36 = getelementptr inbounds nuw %struct.note_msg, ptr %35, i32 0, i32 1
  %37 = getelementptr inbounds nuw %struct.strbuf, ptr %36, i32 0, i32 1
  %38 = load i64, ptr %37, align 8, !tbaa !77
  call void @strbuf_add(ptr noundef %3, ptr noundef %29, i64 noundef %38)
  %39 = load ptr, ptr %2, align 8, !tbaa !68
  %40 = getelementptr inbounds nuw %struct.note_data, ptr %39, i32 0, i32 3
  call void @strbuf_addbuf(ptr noundef %40, ptr noundef %3)
  %41 = load ptr, ptr %2, align 8, !tbaa !68
  %42 = getelementptr inbounds nuw %struct.note_data, ptr %41, i32 0, i32 1
  %43 = load i32, ptr %42, align 4, !tbaa !79
  %44 = icmp eq i32 %43, -1
  br i1 %44, label %45, label %55

45:                                               ; preds = %20
  %46 = load ptr, ptr %2, align 8, !tbaa !68
  %47 = getelementptr inbounds nuw %struct.note_data, ptr %46, i32 0, i32 4
  %48 = load ptr, ptr %47, align 8, !tbaa !73
  %49 = load i64, ptr %4, align 8, !tbaa !42
  %50 = getelementptr inbounds nuw ptr, ptr %48, i64 %49
  %51 = load ptr, ptr %50, align 8, !tbaa !70
  %52 = getelementptr inbounds nuw %struct.note_msg, ptr %51, i32 0, i32 0
  %53 = load i32, ptr %52, align 8, !tbaa !74
  %54 = icmp eq i32 %53, 1
  br i1 %54, label %60, label %55

55:                                               ; preds = %45, %20
  %56 = load ptr, ptr %2, align 8, !tbaa !68
  %57 = getelementptr inbounds nuw %struct.note_data, ptr %56, i32 0, i32 1
  %58 = load i32, ptr %57, align 4, !tbaa !79
  %59 = icmp eq i32 %58, 1
  br i1 %59, label %60, label %63

60:                                               ; preds = %55, %45
  %61 = load ptr, ptr %2, align 8, !tbaa !68
  %62 = getelementptr inbounds nuw %struct.note_data, ptr %61, i32 0, i32 3
  call void @strbuf_stripspace(ptr noundef %62, ptr noundef null)
  br label %63

63:                                               ; preds = %60, %55
  call void @strbuf_setlen(ptr noundef %3, i64 noundef 0)
  br label %64

64:                                               ; preds = %63
  %65 = load i64, ptr %4, align 8, !tbaa !42
  %66 = add i64 %65, 1
  store i64 %66, ptr %4, align 8, !tbaa !42
  br label %5, !llvm.loop !80

67:                                               ; preds = %5
  call void @strbuf_release(ptr noundef %3)
  call void @llvm.lifetime.end.p0(i64 8, ptr %4) #11
  call void @llvm.lifetime.end.p0(i64 24, ptr %3) #11
  ret void
}