; Function Attrs: nounwind uwtable
define internal fastcc void @concat_messages(ptr noundef nonnull %0) unnamed_addr #0 {
  %2 = alloca %struct.strbuf, align 8
  call void @llvm.lifetime.start.p0(i64 24, ptr nonnull %2) #16
  call void @llvm.memcpy.p0.p0.i64(ptr noundef nonnull align 8 dereferenceable(24) %2, ptr noundef nonnull align 8 dereferenceable(24) @__const.remove_cmd.sb, i64 24, i1 false)
  %3 = getelementptr inbounds nuw i8, ptr %0, i64 48
  %4 = load i64, ptr %3, align 8, !tbaa !28
  %.not15 = icmp eq i64 %4, 0
  br i1 %.not15, label %._crit_edge, label %.lr.ph

.lr.ph:                                           ; preds = %1
  %5 = getelementptr inbounds nuw i8, ptr %0, i64 16
  %6 = getelementptr inbounds nuw i8, ptr %0, i64 24
  %7 = getelementptr inbounds nuw i8, ptr %0, i64 40
  %8 = getelementptr inbounds nuw i8, ptr %0, i64 4
  %9 = getelementptr inbounds nuw i8, ptr %2, i64 8
  %10 = getelementptr inbounds nuw i8, ptr %2, i64 16
  br label %11

11:                                               ; preds = %.lr.ph, %strbuf_setlen.exit
  %.014 = phi i64 [ 0, %.lr.ph ], [ %41, %strbuf_setlen.exit ]
  %12 = load i64, ptr %6, align 8, !tbaa !33
  %.not = icmp eq i64 %12, 0
  br i1 %.not, label %append_separator.exit, label %13

13:                                               ; preds = %11
  %14 = load ptr, ptr @separator, align 8, !tbaa !4
  %.not.i = icmp eq ptr %14, null
  br i1 %.not.i, label %append_separator.exit, label %15

15:                                               ; preds = %13
  %16 = call i64 @strlen(ptr noundef nonnull dereferenceable(1) %14) #18
  %.not3.i = icmp eq i64 %16, 0
  br i1 %.not3.i, label %23, label %17

17:                                               ; preds = %15
  %18 = getelementptr i8, ptr %14, i64 %16
  %19 = getelementptr i8, ptr %18, i64 -1
  %20 = load i8, ptr %19, align 1, !tbaa !40
  %21 = icmp eq i8 %20, 10
  br i1 %21, label %22, label %23

22:                                               ; preds = %17
  call void @strbuf_add(ptr noundef nonnull %5, ptr noundef nonnull %14, i64 noundef %16) #16
  br label %append_separator.exit

23:                                               ; preds = %17, %15
  call void (ptr, ptr, ...) @strbuf_addf(ptr noundef nonnull %5, ptr noundef nonnull @.str.59, ptr noundef nonnull %14, ptr noundef nonnull @.str.57) #16
  br label %append_separator.exit

append_separator.exit:                            ; preds = %23, %22, %13, %11
  %24 = load ptr, ptr %7, align 8, !tbaa !80
  %25 = getelementptr inbounds nuw ptr, ptr %24, i64 %.014
  %26 = load ptr, ptr %25, align 8, !tbaa !81
  %27 = getelementptr inbounds nuw i8, ptr %26, i64 24
  %28 = load ptr, ptr %27, align 8, !tbaa !87
  %29 = getelementptr inbounds nuw i8, ptr %26, i64 16
  %30 = load i64, ptr %29, align 8, !tbaa !86
  call void @strbuf_add(ptr noundef nonnull %2, ptr noundef %28, i64 noundef %30) #16
  call void @strbuf_addbuf(ptr noundef nonnull %5, ptr noundef nonnull %2) #16
  %31 = load i32, ptr %8, align 4, !tbaa !88
  switch i32 %31, label %.thread [
    i32 -1, label %32
    i32 1, label %38
  ]

32:                                               ; preds = %append_separator.exit
  %33 = load ptr, ptr %7, align 8, !tbaa !80
  %34 = getelementptr inbounds nuw ptr, ptr %33, i64 %.014
  %35 = load ptr, ptr %34, align 8, !tbaa !81
  %36 = load i32, ptr %35, align 8, !tbaa !83
  %37 = icmp eq i32 %36, 1
  br i1 %37, label %38, label %.thread

38:                                               ; preds = %append_separator.exit, %32
  call void @strbuf_stripspace(ptr noundef nonnull %5, ptr noundef null) #16
  br label %.thread

.thread:                                          ; preds = %append_separator.exit, %32, %38
  store i64 0, ptr %9, align 8, !tbaa !34
  %39 = load ptr, ptr %10, align 8, !tbaa !22
  %.not9.i = icmp eq ptr %39, @strbuf_slopbuf
  br i1 %.not9.i, label %strbuf_setlen.exit, label %40

40:                                               ; preds = %.thread
  store i8 0, ptr %39, align 1, !tbaa !40
  br label %strbuf_setlen.exit

strbuf_setlen.exit:                               ; preds = %.thread, %40
  %41 = add nuw i64 %.014, 1
  %42 = load i64, ptr %3, align 8, !tbaa !28
  %43 = icmp ult i64 %41, %42
  br i1 %43, label %11, label %._crit_edge, !llvm.loop !89

._crit_edge:                                      ; preds = %strbuf_setlen.exit, %1
  call void @strbuf_release(ptr noundef nonnull %2) #16
  call void @llvm.lifetime.end.p0(i64 24, ptr nonnull %2) #16
  ret void
}